Certificate:
    Data:
        Version: 3 (0x2)
        Serial Number:
            2b:34:58:62:54:51:64:c4:fe:da:eb:1a:75:26:8b:09:5b:18:77:53
        Signature Algorithm: sha256WithRSAEncryption
        Issuer: C=NO, O=Green AS, OU=Green Certificate Authority, CN=Green TLS CA
        Validity
            Not Before: May 14 11:04:17 2020 GMT
            Not After : May 14 11:04:17 2022 GMT
        Subject: C=NO, O=Green AS, OU=Green Certificate Authority, CN=localhost
        Subject Public Key Info:
            Public Key Algorithm: rsaEncryption
                RSA Public-Key: (4096 bit)
                Modulus:
                    00:c4:a3:bb:9f:17:9d:c7:06:0c:ac:e7:ed:76:45:
                    ed:0d:94:02:9f:dc:c8:d7:b4:80:9c:14:2a:88:3a:
                    fa:23:8a:ac:d5:e7:d0:06:20:ae:35:92:ed:f3:1d:
                    f8:82:f1:0c:e8:7b:f8:13:ba:b8:a7:25:b0:e6:b4:
                    9d:e6:c8:40:6c:ff:a1:7e:d4:00:cd:82:af:a2:40:
                    7b:3d:c6:a5:3b:72:44:b4:03:65:f0:c3:81:23:f1:
                    a0:af:7b:5c:ad:34:7f:36:6b:f0:0a:33:58:0d:5b:
                    8c:b2:01:93:1e:cf:8e:03:d7:b1:6b:f5:e2:28:3b:
                    e7:d0:1f:95:fd:31:68:b7:5d:63:b5:f4:09:84:52:
                    58:e1:62:99:14:0b:ae:7b:dc:06:f3:10:99:bf:a7:
                    9d:03:36:de:c1:68:f7:9f:cc:2e:87:f3:45:4d:7b:
                    4b:91:27:d8:8c:fd:4c:a2:60:cd:22:1c:1f:1a:ec:
                    e5:e6:d1:1f:df:36:0f:05:4a:24:63:72:c8:7a:3b:
                    01:3d:90:a2:d2:c5:fe:f3:6b:70:c6:34:0e:3b:35:
                    b8:9a:75:98:51:99:0d:80:bd:c9:8d:17:1b:5a:9a:
                    49:d3:89:dc:8f:97:ab:e0:96:3c:2c:50:f6:79:e7:
                    04:b5:0f:f0:9d:bb:97:cf:f5:0a:77:71:b8:33:ad:
                    8b:66:c9:9a:44:86:ae:68:2f:0b:f7:96:64:9c:4e:
                    f1:61:05:e7:9f:a7:9a:4a:5c:6c:ff:43:50:6c:27:
                    e5:4d:43:be:a8:64:6f:73:1e:a9:86:0f:26:0e:94:
                    2c:b4:1f:35:ef:04:a0:c1:6c:91:41:f1:5a:35:f3:
                    87:2c:a7:3f:b0:46:b0:93:0f:28:ad:70:cb:09:01:
                    61:f6:74:3a:a3:0a:fb:79:d1:dc:71:5b:b3:6c:63:
                    9f:01:ae:d2:57:a2:ca:0d:93:73:57:de:53:6d:9f:
                    b5:04:d3:c8:75:7b:96:7e:58:ee:46:37:d5:51:a8:
                    0c:b6:aa:66:b4:9d:36:13:a9:28:48:45:2e:08:a8:
                    e5:ae:8d:26:9a:52:43:e6:37:63:ac:4c:67:e9:63:
                    15:58:97:97:93:c0:8b:05:bb:5c:89:d1:3f:aa:56:
                    76:9a:bd:fd:21:9a:24:3e:dd:fa:6a:fd:11:80:3f:
                    ee:50:ec:7e:43:e7:56:29:30:21:69:00:b4:61:0a:
                    2f:87:59:3a:05:87:6e:a0:08:99:11:92:f7:ec:b2:
                    21:39:03:8b:3e:5a:71:04:f0:2e:c8:6f:00:ef:ec:
                    d9:31:a0:50:77:59:0a:9c:e9:b7:37:bc:cf:7b:a8:
                    ac:24:7b:84:7a:38:b2:f1:6c:33:98:5a:aa:64:db:
                    d1:8f:b5
                Exponent: 65537 (0x10001)
        X509v3 extensions:
            X509v3 Key Usage: critical
                Digital Signature
            X509v3 Basic Constraints: 
                CA:FALSE
            X509v3 Extended Key Usage: 
                TLS Web Client Authentication
            X509v3 Subject Key Identifier: 
                02:84:CA:CE:E9:5B:77:A8:BB:7F:11:5A:51:2A:05:B0:54:09:F5:4B
            X509v3 Authority Key Identifier: 
                keyid:72:6E:ED:F6:97:09:27:AB:CC:BB:F1:BA:DD:CF:76:34:8F:BC:C0:4F

            Authority Information Access: 
                CA Issuers - URI:http://green.no/ca/tls-ca.cer

            X509v3 CRL Distribution Points: 

                Full Name:
                  URI:http://green.no/ca/tls-ca.crl

            X509v3 Subject Alternative Name: 
                DNS:green.no, DNS:www.green.no, DNS:localhost
    Signature Algorithm: sha256WithRSAEncryption
         99:00:4b:7c:b5:0b:cc:86:18:cf:a9:de:f6:80:b2:b0:f4:32:
         ee:03:c9:0e:78:23:e1:91:1f:29:b1:5c:f2:d4:73:8a:d9:11:
         fc:b6:bd:2f:40:ff:a2:86:91:b2:80:19:47:1f:ca:29:b2:ab:
         cf:27:6c:05:fc:2d:d4:9b:cd:02:55:a0:2e:b7:49:8f:f8:0c:
         a4:73:aa:5f:91:0f:6c:4f:fb:9e:8f:0e:67:c7:d9:9b:48:9e:
         dc:50:4f:45:ab:62:2a:59:7d:33:da:d6:50:06:c2:91:e9:d4:
         28:a3:70:86:04:e7:c8:96:c5:47:29:46:5d:77:a3:dc:d9:0f:
         50:9e:04:d3:42:0d:77:b6:2e:90:49:b7:de:7f:7a:69:de:45:
         24:9b:06:3a:14:d3:ef:b1:ee:7c:b6:fb:80:4f:35:3e:0b:78:
         69:e3:f6:1f:85:9b:6d:c5:b4:d8:78:bd:93:d2:0c:96:10:d8:
         33:2b:5e:36:7d:b8:36:62:f5:ec:53:e5:94:44:f6:15:4d:3e:
         a6:b8:85:ff:f6:8d:5a:4b:b3:3c:36:31:0e:8a:dd:04:26:36:
         c6:b4:c6:3c:17:1a:30:7f:9a:a0:d9:dc:a8:f5:1d:e4:d7:76:
         a4:d5:15:3c:9f:79:a3:b6:e9:79:3d:60:93:73:91:81:0e:3b:
         d6:de:03:03:7a:24:e3:bf:6e:4b:52:8e:f2:18:bf:aa:65:e1:
         66:1d:5d:6e:1a:f8:75:06:a3:fb:3f:fe:1b:21:f7:c7:5d:7f:
         bc:fe:ff:4f:c1:04:59:be:ae:3b:34:56:a7:f3:03:0d:ec:02:
         bd:e6:52:29:1e:25:47:72:5e:01:45:76:30:d6:06:e5:0b:2b:
         f2:db:3c:c2:61:c7:f8:e5:44:0d:b7:a6:72:94:20:a4:1d:c2:
         00:e8:9e:6d:9c:76:9c:f3:b1:a7:05:d2:1d:1e:05:39:41:14:
         ef:cf:df:91:be:c0:68:15:9c:f4:ae:30:a0:9e:d5:57:39:f3:
         f4:cb:a4:6c:d4:0e:02:14:ae:91:f4:40:59:26:6c:eb:b7:f4:
         e4:98:62:17:75:85:69:cc:0d:46:a8:3e:59:0f:24:59:2d:91:
         b1:b5:67:1f:bb:97:39:2d:3c:50:0e:9d:1c:25:39:23:40:d8:
         70:be:cc:fe:fa:34:52:d8:0d:50:b7:d4:4f:98:3b:07:66:cb:
         fb:22:75:3d:fc:98:af:e5:b3:30:41:74:d8:01:ed:05:c3:0e:
         cd:55:2b:84:e6:08:98:11:a6:d1:3a:3d:45:2c:e0:f5:21:c3:
         bb:42:0b:01:42:c7:88:7b:9b:0b:e3:02:26:bd:56:1f:93:fb:
         f3:7d:ee:d8:12:26:11:38
-----BEGIN CERTIFICATE-----
MIIGVDCCBDygAwIBAgIUKzRYYlRRZMT+2usadSaLCVsYd1MwDQYJKoZIhvcNAQEL
BQAwXTELMAkGA1UEBhMCTk8xETAPBgNVBAoMCEdyZWVuIEFTMSQwIgYDVQQLDBtH
cmVlbiBDZXJ0aWZpY2F0ZSBBdXRob3JpdHkxFTATBgNVBAMMDEdyZWVuIFRMUyBD
QTAeFw0yMDA1MTQxMTA0MTdaFw0yMjA1MTQxMTA0MTdaMFoxCzAJBgNVBAYTAk5P
MREwDwYDVQQKDAhHcmVlbiBBUzEkMCIGA1UECwwbR3JlZW4gQ2VydGlmaWNhdGUg
QXV0aG9yaXR5MRIwEAYDVQQDDAlsb2NhbGhvc3QwggIiMA0GCSqGSIb3DQEBAQUA
A4ICDwAwggIKAoICAQDEo7ufF53HBgys5+12Re0NlAKf3MjXtICcFCqIOvojiqzV
59AGIK41ku3zHfiC8Qzoe/gTurinJbDmtJ3myEBs/6F+1ADNgq+iQHs9xqU7ckS0
A2Xww4Ej8aCve1ytNH82a/AKM1gNW4yyAZMez44D17Fr9eIoO+fQH5X9MWi3XWO1
9AmEUljhYpkUC6573AbzEJm/p50DNt7BaPefzC6H80VNe0uRJ9iM/UyiYM0iHB8a
7OXm0R/fNg8FSiRjcsh6OwE9kKLSxf7za3DGNA47NbiadZhRmQ2AvcmNFxtamknT
idyPl6vgljwsUPZ55wS1D/Cdu5fP9Qp3cbgzrYtmyZpEhq5oLwv3lmScTvFhBeef
p5pKXGz/Q1BsJ+VNQ76oZG9zHqmGDyYOlCy0HzXvBKDBbJFB8Vo184cspz+wRrCT
DyitcMsJAWH2dDqjCvt50dxxW7NsY58BrtJXosoNk3NX3lNtn7UE08h1e5Z+WO5G
N9VRqAy2qma0nTYTqShIRS4IqOWujSaaUkPmN2OsTGfpYxVYl5eTwIsFu1yJ0T+q
Vnaavf0hmiQ+3fpq/RGAP+5Q7H5D51YpMCFpALRhCi+HWToFh26gCJkRkvfssiE5
A4s+WnEE8C7IbwDv7NkxoFB3WQqc6bc3vM97qKwke4R6OLLxbDOYWqpk29GPtQID
AQABo4IBDTCCAQkwDgYDVR0PAQH/BAQDAgeAMAkGA1UdEwQCMAAwEwYDVR0lBAww
CgYIKwYBBQUHAwIwHQYDVR0OBBYEFAKEys7pW3eou38RWlEqBbBUCfVLMB8GA1Ud
IwQYMBaAFHJu7faXCSerzLvxut3PdjSPvMBPMDkGCCsGAQUFBwEBBC0wKzApBggr
BgEFBQcwAoYdaHR0cDovL2dyZWVuLm5vL2NhL3Rscy1jYS5jZXIwLgYDVR0fBCcw
JTAjoCGgH4YdaHR0cDovL2dyZWVuLm5vL2NhL3Rscy1jYS5jcmwwLAYDVR0RBCUw
I4IIZ3JlZW4ubm+CDHd3dy5ncmVlbi5ub4IJbG9jYWxob3N0MA0GCSqGSIb3DQEB
CwUAA4ICAQCZAEt8tQvMhhjPqd72gLKw9DLuA8kOeCPhkR8psVzy1HOK2RH8tr0v
QP+ihpGygBlHH8opsqvPJ2wF/C3Um80CVaAut0mP+Aykc6pfkQ9sT/uejw5nx9mb
SJ7cUE9Fq2IqWX0z2tZQBsKR6dQoo3CGBOfIlsVHKUZdd6Pc2Q9QngTTQg13ti6Q
Sbfef3pp3kUkmwY6FNPvse58tvuATzU+C3hp4/YfhZttxbTYeL2T0gyWENgzK142
fbg2YvXsU+WURPYVTT6muIX/9o1aS7M8NjEOit0EJjbGtMY8Fxowf5qg2dyo9R3k
13ak1RU8n3mjtul5PWCTc5GBDjvW3gMDeiTjv25LUo7yGL+qZeFmHV1uGvh1BqP7
P/4bIffHXX+8/v9PwQRZvq47NFan8wMN7AK95lIpHiVHcl4BRXYw1gblCyvy2zzC
Ycf45UQNt6ZylCCkHcIA6J5tnHac87GnBdIdHgU5QRTvz9+RvsBoFZz0rjCgntVX
OfP0y6Rs1A4CFK6R9EBZJmzrt/TkmGIXdYVpzA1GqD5ZDyRZLZGxtWcfu5c5LTxQ
Dp0cJTkjQNhwvsz++jRS2A1Qt9RPmDsHZsv7InU9/Jiv5bMwQXTYAe0Fww7NVSuE
5giYEabROj1FLOD1IcO7QgsBQseIe5sL4wImvVYfk/vzfe7YEiYROA==
-----END CERTIFICATE-----
