Certificate:
    Data:
        Version: 3 (0x2)
        Serial Number:
            50:75:ef:c7:8f:34:a7:a1:c4:8a:3a:d0:3d:a6:60:b7:13:15:db:be
        Signature Algorithm: sha256WithRSAEncryption
        Issuer: C=NO, O=Green AS, OU=Green Certificate Authority, CN=localhost
        Validity
            Not Before: May 13 17:20:23 2020 GMT
            Not After : May 13 17:20:23 2030 GMT
        Subject: C=NO, O=Green AS, OU=Green Certificate Authority, CN=localhost
        Subject Public Key Info:
            Public Key Algorithm: rsaEncryption
                RSA Public-Key: (4096 bit)
                Modulus:
                    00:cb:f7:8a:92:91:c5:b4:37:ff:4a:af:12:8d:ed:
                    ac:33:2e:04:e9:7e:ae:7a:0b:1f:0e:7d:1c:38:b2:
                    e3:b9:75:24:a3:7f:25:fa:12:a7:74:9c:6e:57:8e:
                    73:fd:2a:05:4a:25:46:da:7f:7d:64:e7:83:1b:5b:
                    f4:cf:56:fa:f8:cc:62:ff:9b:c1:75:c5:a3:58:d1:
                    4e:be:59:9f:95:a7:f8:90:91:a4:11:3c:82:9e:97:
                    49:03:34:fa:be:5d:76:de:af:e7:52:e2:73:2b:d0:
                    5c:2a:93:31:6b:02:4c:26:7a:a2:ae:e5:b0:e9:8c:
                    ae:fd:0e:3b:10:11:e6:4c:c5:e7:f2:d2:ed:22:34:
                    b6:c7:20:83:8e:25:41:23:1c:1a:41:ae:e8:1a:da:
                    c8:74:41:ae:f3:cc:44:34:90:a0:61:a9:f2:9e:1a:
                    75:56:4e:fa:45:8c:7d:40:32:03:f7:25:a3:13:8d:
                    b2:ed:c1:14:71:c6:15:bf:3d:90:ee:8c:d7:7c:bd:
                    34:54:04:8d:8c:21:03:c5:cc:f9:30:67:7d:03:b4:
                    50:ac:bd:6d:01:0e:7c:30:58:7c:d6:df:be:65:ac:
                    f9:1c:2a:d8:01:c4:fe:f6:52:7a:a3:68:5d:e8:03:
                    5c:5d:7b:11:c5:91:d7:f7:6b:7b:ed:69:ad:39:aa:
                    4e:56:ec:ab:cc:0b:33:b7:63:da:1f:0f:3c:45:f3:
                    c7:0c:e9:c0:03:e9:ca:51:4b:b0:b7:87:00:9c:a0:
                    d2:fe:ce:c9:86:13:5a:e2:41:10:b4:06:9b:d4:63:
                    0e:e4:40:92:ae:31:30:67:c6:ec:fc:fb:4d:f7:66:
                    18:d7:95:d9:ee:a0:c8:1f:03:23:e5:17:44:35:7f:
                    d2:3f:74:20:c5:50:7b:29:22:05:e8:8c:c2:98:ac:
                    6f:63:58:65:0f:4c:0a:d0:ef:02:3e:77:00:a2:92:
                    ba:27:6a:85:fd:2c:b7:ba:7c:3d:41:37:2e:88:8c:
                    6b:0e:b8:ec:5a:02:3b:fc:e6:a8:5f:f3:68:52:da:
                    66:a2:2a:05:93:6f:d8:41:88:a5:45:d8:ae:1f:9e:
                    4d:af:79:bc:5e:7b:35:5f:1b:e0:40:7c:ee:56:9d:
                    4e:c3:d7:df:68:10:49:72:2c:b1:32:59:86:97:65:
                    2e:ae:2d:91:c7:b9:eb:07:e1:1b:7b:71:70:c2:ea:
                    1a:dc:08:08:5e:f5:80:62:52:f0:e0:8a:0b:00:b4:
                    75:1c:4f:55:bf:a0:84:b8:9c:df:4d:fa:81:cd:be:
                    2e:f6:38:47:ea:7a:70:7e:1d:4e:22:43:67:51:8b:
                    65:63:11:dc:21:6c:c7:20:b6:da:94:a2:e2:b3:19:
                    47:5c:8d
                Exponent: 65537 (0x10001)
        X509v3 extensions:
            X509v3 Key Usage: critical
                Digital Signature, Non Repudiation, Key Encipherment, Certificate Sign, CRL Sign
            X509v3 Basic Constraints: critical
                CA:TRUE
            X509v3 Subject Key Identifier: 
                0C:09:44:D6:E9:31:F1:B3:BF:49:08:A6:9A:64:A1:1D:A7:51:EB:B8
            X509v3 Authority Key Identifier: 
                keyid:0C:09:44:D6:E9:31:F1:B3:BF:49:08:A6:9A:64:A1:1D:A7:51:EB:B8

            X509v3 Subject Alternative Name: 
                DNS:localhost
    Signature Algorithm: sha256WithRSAEncryption
         42:45:ba:9d:2c:19:fb:12:19:4b:84:35:d5:b4:97:c1:05:83:
         10:83:a1:8b:40:2a:07:f3:c9:67:e6:d5:a7:68:7d:4b:f4:b2:
         7f:26:89:a6:07:2c:15:4c:ca:5b:9c:c1:a7:c1:fc:85:f0:bb:
         07:f4:f5:d1:26:96:26:92:7e:36:78:d8:69:b0:1a:a5:cb:9c:
         68:da:1d:80:7b:57:17:c3:2b:66:7e:9f:77:57:ee:5b:86:d4:
         27:bc:16:e1:a0:d2:41:63:51:76:8a:ee:6f:53:0b:17:4e:41:
         8e:4d:7b:43:fa:28:75:84:d4:89:37:48:39:c4:7f:81:b2:4d:
         c1:65:0a:0c:43:dd:74:f0:49:de:68:2b:79:54:3e:49:29:1e:
         65:7d:23:bc:f8:7e:c8:c0:ec:34:e0:c1:95:9c:1e:45:52:bd:
         7c:f6:3c:fc:e5:f3:7d:54:d5:e4:30:e4:d9:31:a2:51:84:fa:
         2e:84:ca:f7:75:7d:f9:9b:c5:ec:44:6e:94:6b:0f:52:26:fa:
         15:0b:aa:79:e5:d7:e7:c7:2e:7a:c5:60:c1:6c:29:9a:4c:4a:
         3b:fd:17:ee:5a:ff:ca:d6:ce:05:73:cb:43:2f:8f:be:e6:e6:
         6c:f9:78:df:db:63:4e:ef:5a:72:cf:c5:ec:ad:0f:6c:ae:eb:
         fb:88:95:dd:bd:7e:07:0c:af:c8:ea:a3:f1:a8:92:a6:2a:05:
         b0:ef:82:88:9b:89:b7:de:4a:33:b3:7b:09:2a:91:2e:ed:6e:
         df:82:8d:5a:35:35:4b:b2:5c:a3:ca:5c:5d:08:17:da:4f:a6:
         92:70:b8:4c:62:1f:9a:24:54:1a:cc:86:a7:35:b3:5e:d8:c6:
         e4:58:66:b3:d1:8c:44:12:63:d7:5a:1c:28:29:55:97:77:b4:
         88:54:2c:b9:b8:d8:d3:82:fe:dc:df:1c:89:7d:b1:50:c0:1c:
         18:fd:b4:7b:72:19:84:10:d8:0b:e9:71:7e:21:55:87:45:86:
         2a:43:b0:3f:00:6a:b0:0e:62:5d:a7:a3:e5:fa:c3:a4:f6:f3:
         72:9e:51:1e:4f:89:3e:a7:29:f2:d1:a6:1d:f7:c1:bb:9d:fd:
         43:30:56:e7:fa:4d:a8:7a:c3:6e:98:8e:78:23:2c:0c:16:ea:
         7b:5d:b5:21:26:f3:e1:36:23:2e:be:60:d0:db:ee:1a:c5:19:
         da:01:ee:38:cd:38:4c:e8:7d:7c:0b:fe:50:27:63:e4:31:19:
         58:15:12:52:05:4e:29:0b:cf:99:8f:3b:b8:0c:e0:a2:08:a9:
         ea:da:d7:32:d2:34:37:0c:a2:dc:8c:1f:da:cd:5c:9c:85:f1:
         4c:52:78:ff:b6:1b:a9:b2
-----BEGIN CERTIFICATE-----
MIIFuzCCA6OgAwIBAgIUUHXvx480p6HEijrQPaZgtxMV274wDQYJKoZIhvcNAQEL
BQAwWjELMAkGA1UEBhMCTk8xETAPBgNVBAoMCEdyZWVuIEFTMSQwIgYDVQQLDBtH
cmVlbiBDZXJ0aWZpY2F0ZSBBdXRob3JpdHkxEjAQBgNVBAMMCWxvY2FsaG9zdDAe
Fw0yMDA1MTMxNzIwMjNaFw0zMDA1MTMxNzIwMjNaMFoxCzAJBgNVBAYTAk5PMREw
DwYDVQQKDAhHcmVlbiBBUzEkMCIGA1UECwwbR3JlZW4gQ2VydGlmaWNhdGUgQXV0
aG9yaXR5MRIwEAYDVQQDDAlsb2NhbGhvc3QwggIiMA0GCSqGSIb3DQEBAQUAA4IC
DwAwggIKAoICAQDL94qSkcW0N/9KrxKN7awzLgTpfq56Cx8OfRw4suO5dSSjfyX6
Eqd0nG5XjnP9KgVKJUbaf31k54MbW/TPVvr4zGL/m8F1xaNY0U6+WZ+Vp/iQkaQR
PIKel0kDNPq+XXber+dS4nMr0FwqkzFrAkwmeqKu5bDpjK79DjsQEeZMxefy0u0i
NLbHIIOOJUEjHBpBruga2sh0Qa7zzEQ0kKBhqfKeGnVWTvpFjH1AMgP3JaMTjbLt
wRRxxhW/PZDujNd8vTRUBI2MIQPFzPkwZ30DtFCsvW0BDnwwWHzW375lrPkcKtgB
xP72UnqjaF3oA1xdexHFkdf3a3vtaa05qk5W7KvMCzO3Y9ofDzxF88cM6cAD6cpR
S7C3hwCcoNL+zsmGE1riQRC0BpvUYw7kQJKuMTBnxuz8+033ZhjXldnuoMgfAyPl
F0Q1f9I/dCDFUHspIgXojMKYrG9jWGUPTArQ7wI+dwCikronaoX9LLe6fD1BNy6I
jGsOuOxaAjv85qhf82hS2maiKgWTb9hBiKVF2K4fnk2vebxeezVfG+BAfO5WnU7D
199oEElyLLEyWYaXZS6uLZHHuesH4Rt7cXDC6hrcCAhe9YBiUvDgigsAtHUcT1W/
oIS4nN9N+oHNvi72OEfqenB+HU4iQ2dRi2VjEdwhbMcgttqUouKzGUdcjQIDAQAB
o3kwdzAOBgNVHQ8BAf8EBAMCAeYwDwYDVR0TAQH/BAUwAwEB/zAdBgNVHQ4EFgQU
DAlE1ukx8bO/SQimmmShHadR67gwHwYDVR0jBBgwFoAUDAlE1ukx8bO/SQimmmSh
HadR67gwFAYDVR0RBA0wC4IJbG9jYWxob3N0MA0GCSqGSIb3DQEBCwUAA4ICAQBC
RbqdLBn7EhlLhDXVtJfBBYMQg6GLQCoH88ln5tWnaH1L9LJ/JommBywVTMpbnMGn
wfyF8LsH9PXRJpYmkn42eNhpsBqly5xo2h2Ae1cXwytmfp93V+5bhtQnvBbhoNJB
Y1F2iu5vUwsXTkGOTXtD+ih1hNSJN0g5xH+Bsk3BZQoMQ9108EneaCt5VD5JKR5l
fSO8+H7IwOw04MGVnB5FUr189jz85fN9VNXkMOTZMaJRhPouhMr3dX35m8XsRG6U
aw9SJvoVC6p55dfnxy56xWDBbCmaTEo7/RfuWv/K1s4Fc8tDL4++5uZs+Xjf22NO
71pyz8XsrQ9sruv7iJXdvX4HDK/I6qPxqJKmKgWw74KIm4m33kozs3sJKpEu7W7f
go1aNTVLslyjylxdCBfaT6aScLhMYh+aJFQazIanNbNe2MbkWGaz0YxEEmPXWhwo
KVWXd7SIVCy5uNjTgv7c3xyJfbFQwBwY/bR7chmEENgL6XF+IVWHRYYqQ7A/AGqw
DmJdp6Pl+sOk9vNynlEeT4k+pyny0aYd98G7nf1DMFbn+k2oesNumI54IywMFup7
XbUhJvPhNiMuvmDQ2+4axRnaAe44zThM6H18C/5QJ2PkMRlYFRJSBU4pC8+Zjzu4
DOCiCKnq2tcy0jQ3DKLcjB/azVychfFMUnj/thupsg==
-----END CERTIFICATE-----
